target datalayout = "e-m:e-p270:32:32-p271:32:32-p272:64:64-i64:64-i128:128-f80:128-n8:16:32:64-S128"
target triple = "x86_64-pc-linux-gnu"

%struct.b2Vec2 = type { float, float }
%struct.b2JointSimArray = type { ptr, i32, i32 }
%struct.b2AtomicInt = type { i32 }
%struct.b2ConstraintGraph = type { [12 x %struct.b2GraphColor] }
%struct.b2GraphColor = type { %struct.b2BitSet, %struct.b2ContactSimArray, %struct.b2JointSimArray, %union.anon }
%struct.b2ContactSimArray = type { ptr, i32, i32 }
%union.anon = type { ptr }
%struct.b2BitSet = type { ptr, i32, i32 }
%struct.b2JointSim = type { i32, i32, i32, i32, %struct.b2Vec2, %struct.b2Vec2, float, float, float, float, %union.anon.0 }
%union.anon.0 = type { %struct.b2PrismaticJoint }
%struct.b2PrismaticJoint = type { %struct.b2Vec2, %struct.b2Vec2, float, float, float, float, float, float, float, float, float, float, float, i32, i32, %struct.b2Vec2, %struct.b2Vec2, %struct.b2Vec2, %struct.b2Vec2, float, float, %struct.b2Softness, i8, i8, i8 }
%struct.b2Softness = type { float, float, float }
%struct.b2StepContext = type { float, float, float, float, i32, %struct.b2Softness, %struct.b2Softness, %struct.b2Softness, float, float, ptr, ptr, ptr, ptr, ptr, i32, ptr, %struct.b2AtomicInt, ptr, ptr, ptr, i32, i32, ptr, i32, i8, [64 x i8], %struct.b2AtomicU32, [64 x i8] }
%struct.b2AtomicU32 = type { i32 }

; Function Attrs: nounwind uwtable
define hidden void @b2SolveOverflowJoints(ptr noundef %0, i1 noundef zeroext %1) #0 {
  %3 = alloca ptr, align 8
  %4 = alloca i8, align 1
  %5 = alloca ptr, align 8
  %6 = alloca ptr, align 8
  %7 = alloca i32, align 4
  %8 = alloca i32, align 4
  %9 = alloca ptr, align 8
  store ptr %0, ptr %3, align 8, !tbaa !278
  %10 = zext i1 %1 to i8
  store i8 %10, ptr %4, align 1, !tbaa !133
  call void @llvm.lifetime.start.p0(i64 8, ptr %5) #9
  %11 = load ptr, ptr %3, align 8, !tbaa !278
  %12 = getelementptr inbounds nuw %struct.b2StepContext, ptr %11, i32 0, i32 11
  %13 = load ptr, ptr %12, align 8, !tbaa !280
  store ptr %13, ptr %5, align 8, !tbaa !289
  call void @llvm.lifetime.start.p0(i64 8, ptr %6) #9
  %14 = load ptr, ptr %5, align 8, !tbaa !289
  %15 = getelementptr inbounds nuw %struct.b2ConstraintGraph, ptr %14, i32 0, i32 0
  %16 = getelementptr inbounds [12 x %struct.b2GraphColor], ptr %15, i64 0, i64 11
  %17 = getelementptr inbounds nuw %struct.b2GraphColor, ptr %16, i32 0, i32 2
  %18 = getelementptr inbounds nuw %struct.b2JointSimArray, ptr %17, i32 0, i32 0
  %19 = load ptr, ptr %18, align 8, !tbaa !290
  store ptr %19, ptr %6, align 8, !tbaa !121
  call void @llvm.lifetime.start.p0(i64 4, ptr %7) #9
  %20 = load ptr, ptr %5, align 8, !tbaa !289
  %21 = getelementptr inbounds nuw %struct.b2ConstraintGraph, ptr %20, i32 0, i32 0
  %22 = getelementptr inbounds [12 x %struct.b2GraphColor], ptr %21, i64 0, i64 11
  %23 = getelementptr inbounds nuw %struct.b2GraphColor, ptr %22, i32 0, i32 2
  %24 = getelementptr inbounds nuw %struct.b2JointSimArray, ptr %23, i32 0, i32 1
  %25 = load i32, ptr %24, align 8, !tbaa !292
  store i32 %25, ptr %7, align 4, !tbaa !3
  call void @llvm.lifetime.start.p0(i64 4, ptr %8) #9
  store i32 0, ptr %8, align 4, !tbaa !3
  br label %26

26:                                               ; preds = %40, %2
  %27 = load i32, ptr %8, align 4, !tbaa !3
  %28 = load i32, ptr %7, align 4, !tbaa !3
  %29 = icmp slt i32 %27, %28
  br i1 %29, label %31, label %30

30:                                               ; preds = %26
  call void @llvm.lifetime.end.p0(i64 4, ptr %8) #9
  br label %43

31:                                               ; preds = %26
  call void @llvm.lifetime.start.p0(i64 8, ptr %9) #9
  %32 = load ptr, ptr %6, align 8, !tbaa !121
  %33 = load i32, ptr %8, align 4, !tbaa !3
  %34 = sext i32 %33 to i64
  %35 = getelementptr inbounds %struct.b2JointSim, ptr %32, i64 %34
  store ptr %35, ptr %9, align 8, !tbaa !121
  %36 = load ptr, ptr %9, align 8, !tbaa !121
  %37 = load ptr, ptr %3, align 8, !tbaa !278
  %38 = load i8, ptr %4, align 1, !tbaa !133, !range !119, !noundef !120
  %39 = trunc i8 %38 to i1
  call void @b2SolveJoint(ptr noundef %36, ptr noundef %37, i1 noundef zeroext %39)
  call void @llvm.lifetime.end.p0(i64 8, ptr %9) #9
  br label %40

40:                                               ; preds = %31
  %41 = load i32, ptr %8, align 4, !tbaa !3
  %42 = add nsw i32 %41, 1
  store i32 %42, ptr %8, align 4, !tbaa !3
  br label %26, !llvm.loop !295

43:                                               ; preds = %30
  call void @llvm.lifetime.end.p0(i64 4, ptr %7) #9
  call void @llvm.lifetime.end.p0(i64 8, ptr %6) #9
  call void @llvm.lifetime.end.p0(i64 8, ptr %5) #9
  ret void
}