; Function Attrs: nounwind uwtable
define hidden void @b2SolveOverflowJoints(ptr noundef %0, i1 noundef zeroext %1) local_unnamed_addr #0 {
  %3 = getelementptr inbounds nuw i8, ptr %0, i64 72
  %4 = load ptr, ptr %3, align 8, !tbaa !222
  %5 = getelementptr inbounds nuw i8, ptr %4, i64 648
  %6 = load ptr, ptr %5, align 8, !tbaa !232
  %7 = getelementptr inbounds nuw i8, ptr %4, i64 656
  %8 = load i32, ptr %7, align 8, !tbaa !234
  %9 = icmp sgt i32 %8, 0
  br i1 %9, label %.lr.ph.preheader, label %._crit_edge

.lr.ph.preheader:                                 ; preds = %2
  %wide.trip.count = zext nneg i32 %8 to i64
  br label %.lr.ph

._crit_edge:                                      ; preds = %.lr.ph, %2
  ret void

.lr.ph:                                           ; preds = %.lr.ph.preheader, %.lr.ph
  %indvars.iv = phi i64 [ 0, %.lr.ph.preheader ], [ %indvars.iv.next, %.lr.ph ]
  %10 = getelementptr inbounds nuw %struct.b2JointSim, ptr %6, i64 %indvars.iv
  tail call void @b2SolveJoint(ptr noundef %10, ptr noundef %0, i1 noundef zeroext %1)
  %indvars.iv.next = add nuw nsw i64 %indvars.iv, 1
  %exitcond.not = icmp eq i64 %indvars.iv.next, %wide.trip.count
  br i1 %exitcond.not, label %._crit_edge, label %.lr.ph, !llvm.loop !237
}